Certificate:
    Data:
        Version: 3 (0x2)
        Serial Number: 5 (0x5)
    Signature Algorithm: sha256WithRSAEncryption
        Issuer: C=US, ST=CA, L=San Diego, O=WSuite, CN=wsuite
        Validity
            Not Before: Jul 12 13:43:21 2017 GMT
            Not After : Jul 12 13:43:21 2018 GMT
        Subject: C=US, ST=CA, O=WSuite, CN=wsuite.insight
        Subject Public Key Info:
            Public Key Algorithm: rsaEncryption
                Public-Key: (1024 bit)
                Modulus:
                    00:d0:e8:69:ad:a0:16:66:24:5d:c8:c7:86:6f:52:
                    87:76:bb:37:49:4e:88:69:d8:e9:37:28:1f:0e:99:
                    d9:a7:46:57:36:57:2b:34:82:88:ea:c2:ce:33:24:
                    f2:e6:ff:21:50:58:4d:bc:80:88:9d:84:b7:74:9f:
                    a4:c6:60:a8:cd:48:2a:0d:09:16:35:a3:0c:1d:b5:
                    0a:62:65:45:df:21:8d:3e:af:fa:c3:df:dd:57:5c:
                    48:59:9b:0d:ec:ab:7b:5b:1f:4c:e5:72:cf:ea:ea:
                    d1:f3:8d:6f:65:44:6d:34:8e:d4:a4:d5:61:03:d4:
                    71:2a:68:ef:65:35:bc:a5:e7
                Exponent: 65537 (0x10001)
        X509v3 extensions:
            X509v3 Basic Constraints: 
                CA:FALSE
            Netscape Comment: 
                OpenSSL Generated Certificate
            X509v3 Subject Key Identifier: 
                A2:25:92:3A:EA:3C:9D:BD:3E:85:EA:81:E2:27:87:5D:DA:08:73:F2
            X509v3 Authority Key Identifier: 
                DirName:/C=US/ST=CA/L=San Diego/O=WSuite/CN=wsuite
                serial:FF:66:22:49:C9:64:DD:3A

    Signature Algorithm: sha256WithRSAEncryption
         61:83:1b:34:cb:58:6e:99:8e:57:47:d4:bd:20:3e:d2:c7:54:
         c5:80:5f:75:f9:ba:8c:8c:00:3f:68:14:5d:2e:76:5e:63:17:
         b4:f8:7c:03:24:af:e9:b9:34:bd:72:0f:36:3c:c7:ca:53:de:
         1b:48:56:b1:cc:77:9c:dc:29:ed:d6:5d:c3:33:ab:e1:b4:c8:
         41:c9:5e:2a:9b:ff:e3:3e:f4:1a:dc:86:ce:b8:11:11:7c:22:
         df:ec:9a:82:1e:2c:db:42:2b:29:67:5c:b5:72:b0:bb:c2:47:
         02:fc:9a:0f:f1:7a:1e:2f:aa:9e:36:0b:f4:b0:34:a7:0f:bc:
         ad:c6
-----BEGIN CERTIFICATE-----
MIIC0jCCAjugAwIBAgIBBTANBgkqhkiG9w0BAQsFADBQMQswCQYDVQQGEwJVUzEL
MAkGA1UECBMCQ0ExEjAQBgNVBAcTCVNhbiBEaWVnbzEPMA0GA1UEChMGV1N1aXRl
MQ8wDQYDVQQDEwZ3c3VpdGUwHhcNMTcwNzEyMTM0MzIxWhcNMTgwNzEyMTM0MzIx
WjBEMQswCQYDVQQGEwJVUzELMAkGA1UECBMCQ0ExDzANBgNVBAoTBldTdWl0ZTEX
MBUGA1UEAxMOd3N1aXRlLmluc2lnaHQwgZ8wDQYJKoZIhvcNAQEBBQADgY0AMIGJ
AoGBANDoaa2gFmYkXcjHhm9Sh3a7N0lOiGnY6TcoHw6Z2adGVzZXKzSCiOrCzjMk
8ub/IVBYTbyAiJ2Et3SfpMZgqM1IKg0JFjWjDB21CmJlRd8hjT6v+sPf3VdcSFmb
Deyre1sfTOVyz+rq0fONb2VEbTSO1KTVYQPUcSpo72U1vKXnAgMBAAGjgccwgcQw
CQYDVR0TBAIwADAsBglghkgBhvhCAQ0EHxYdT3BlblNTTCBHZW5lcmF0ZWQgQ2Vy
dGlmaWNhdGUwHQYDVR0OBBYEFKIlkjrqPJ29PoXqgeInh13aCHPyMGoGA1UdIwRj
MGGhVKRSMFAxCzAJBgNVBAYTAlVTMQswCQYDVQQIEwJDQTESMBAGA1UEBxMJU2Fu
IERpZWdvMQ8wDQYDVQQKEwZXU3VpdGUxDzANBgNVBAMTBndzdWl0ZYIJAP9mIknJ
ZN06MA0GCSqGSIb3DQEBCwUAA4GBAGGDGzTLWG6ZjldH1L0gPtLHVMWAX3X5uoyM
AD9oFF0udl5jF7T4fAMkr+m5NL1yDzY8x8pT3htIVrHMd5zcKe3WXcMzq+G0yEHJ
Xiqb/+M+9Brchs64ERF8It/smoIeLNtCKylnXLVysLvCRwL8mg/xeh4vqp42C/Sw
NKcPvK3G
-----END CERTIFICATE-----
